; Function Attrs: nofree norecurse nosync nounwind memory(read, inaccessiblemem: none) uwtable
define range(i32 0, 2) i32 @Dar_NewChoiceSynthesisGuard(ptr noundef readonly captures(none) %0) local_unnamed_addr #5 {
  %2 = getelementptr inbounds nuw i8, ptr %0, i64 32
  %3 = load ptr, ptr %2, align 8, !tbaa !47
  %4 = getelementptr i8, ptr %3, i64 4
  %.val12 = load i32, ptr %4, align 4, !tbaa !38
  %5 = icmp sgt i32 %.val12, 0
  br i1 %5, label %.lr.ph, label %.critedge

.lr.ph:                                           ; preds = %1
  %6 = getelementptr i8, ptr %3, i64 8
  %.val = load ptr, ptr %6, align 8, !tbaa !36
  %wide.trip.count = zext nneg i32 %.val12 to i64
  br label %7

7:                                                ; preds = %.lr.ph, %20
  %indvars.iv = phi i64 [ 0, %.lr.ph ], [ %indvars.iv.next, %20 ]
  %.017 = phi i32 [ 0, %.lr.ph ], [ %.1, %20 ]
  %8 = getelementptr inbounds nuw ptr, ptr %.val, i64 %indvars.iv
  %9 = load ptr, ptr %8, align 8, !tbaa !37
  %10 = icmp eq ptr %9, null
  br i1 %10, label %20, label %11

11:                                               ; preds = %7
  %12 = getelementptr i8, ptr %9, i64 24
  %.val13 = load i64, ptr %12, align 8
  %13 = trunc i64 %.val13 to i32
  %14 = and i32 %13, 7
  %15 = add nsw i32 %14, -5
  %narrow.i = icmp ult i32 %15, 2
  %16 = icmp ugt i32 %13, 64063
  %or.cond = and i1 %16, %narrow.i
  br i1 %or.cond, label %17, label %20

17:                                               ; preds = %11
  %18 = udiv i32 %13, 64000
  %19 = add nsw i32 %18, %.017
  br label %20

20:                                               ; preds = %11, %7, %17
  %.1 = phi i32 [ %.017, %7 ], [ %19, %17 ], [ %.017, %11 ]
  %indvars.iv.next = add nuw nsw i64 %indvars.iv, 1
  %exitcond.not = icmp eq i64 %indvars.iv.next, %wide.trip.count
  br i1 %exitcond.not, label %.critedge.loopexit, label %7, !llvm.loop !48

.critedge.loopexit:                               ; preds = %20
  %21 = icmp sgt i32 %.1, 10
  %22 = zext i1 %21 to i32
  br label %.critedge

.critedge:                                        ; preds = %.critedge.loopexit, %1
  %.0.lcssa = phi i32 [ 0, %1 ], [ %22, %.critedge.loopexit ]
  ret i32 %.0.lcssa
}